; Function Attrs: mustprogress nounwind uwtable
define internal fastcc noundef zeroext i1 @_ZN4llvm12DenseMapInfoIN12_GLOBAL__N_115MemoryLocOrCallEvE7isEqualERKS2_S5_(ptr nocapture noundef nonnull readonly align 8 dereferenceable(56) %0, ptr nocapture noundef nonnull readonly align 8 dereferenceable(56) %1) unnamed_addr #0 align 2 {
  %3 = load i8, ptr %0, align 8
  %4 = load i8, ptr %1, align 8
  %5 = xor i8 %4, %3
  %6 = and i8 %5, 1
  %.not.i = icmp eq i8 %6, 0
  br i1 %.not.i, label %7, label %_ZNK12_GLOBAL__N_115MemoryLocOrCalleqERKS0_.exit

7:                                                ; preds = %2
  %8 = trunc i8 %3 to i1
  %9 = getelementptr inbounds nuw i8, ptr %0, i64 8
  br i1 %8, label %45, label %10

10:                                               ; preds = %7
  %11 = getelementptr inbounds nuw i8, ptr %1, i64 8
  %12 = load ptr, ptr %9, align 8
  %13 = load ptr, ptr %11, align 8
  %14 = icmp eq ptr %12, %13
  br i1 %14, label %15, label %_ZNK12_GLOBAL__N_115MemoryLocOrCalleqERKS0_.exit

15:                                               ; preds = %10
  %16 = getelementptr inbounds i8, ptr %0, i64 16
  %17 = getelementptr inbounds i8, ptr %1, i64 16
  %18 = load i64, ptr %16, align 8
  %19 = load i64, ptr %17, align 8
  %20 = icmp eq i64 %18, %19
  br i1 %20, label %21, label %_ZNK12_GLOBAL__N_115MemoryLocOrCalleqERKS0_.exit

21:                                               ; preds = %15
  %22 = getelementptr inbounds i8, ptr %0, i64 24
  %23 = getelementptr inbounds i8, ptr %1, i64 24
  %24 = load ptr, ptr %22, align 8
  %25 = load ptr, ptr %23, align 8
  %26 = icmp eq ptr %24, %25
  br i1 %26, label %27, label %_ZNK12_GLOBAL__N_115MemoryLocOrCalleqERKS0_.exit

27:                                               ; preds = %21
  %28 = getelementptr inbounds i8, ptr %0, i64 32
  %29 = load ptr, ptr %28, align 8
  %30 = getelementptr inbounds i8, ptr %1, i64 32
  %31 = load ptr, ptr %30, align 8
  %32 = icmp eq ptr %29, %31
  br i1 %32, label %33, label %_ZNK12_GLOBAL__N_115MemoryLocOrCalleqERKS0_.exit

33:                                               ; preds = %27
  %34 = getelementptr inbounds i8, ptr %0, i64 40
  %35 = load ptr, ptr %34, align 8
  %36 = getelementptr inbounds i8, ptr %1, i64 40
  %37 = load ptr, ptr %36, align 8
  %38 = icmp eq ptr %35, %37
  br i1 %38, label %39, label %_ZNK12_GLOBAL__N_115MemoryLocOrCalleqERKS0_.exit

39:                                               ; preds = %33
  %40 = getelementptr inbounds i8, ptr %0, i64 48
  %41 = load ptr, ptr %40, align 8
  %42 = getelementptr inbounds i8, ptr %1, i64 48
  %43 = load ptr, ptr %42, align 8
  %44 = icmp eq ptr %41, %43
  br label %_ZNK12_GLOBAL__N_115MemoryLocOrCalleqERKS0_.exit

45:                                               ; preds = %7
  %46 = load ptr, ptr %9, align 8
  %47 = getelementptr inbounds i8, ptr %46, i64 -32
  %48 = load ptr, ptr %47, align 8
  %49 = getelementptr inbounds nuw i8, ptr %1, i64 8
  %50 = load ptr, ptr %49, align 8
  %51 = getelementptr inbounds i8, ptr %50, i64 -32
  %52 = load ptr, ptr %51, align 8
  %.not7.i = icmp eq ptr %48, %52
  br i1 %.not7.i, label %53, label %_ZNK12_GLOBAL__N_115MemoryLocOrCalleqERKS0_.exit

53:                                               ; preds = %45
  %54 = tail call noundef ptr @_ZN4llvm8CallBase7arg_endEv(ptr noundef nonnull align 8 dereferenceable(88) %46)
  %55 = getelementptr inbounds nuw i8, ptr %46, i64 4
  %56 = load i32, ptr %55, align 4
  %57 = and i32 %56, 134217727
  %58 = zext nneg i32 %57 to i64
  %59 = sub nsw i64 0, %58
  %60 = getelementptr inbounds %"class.llvm::Use", ptr %46, i64 %59
  %61 = ptrtoint ptr %54 to i64
  %62 = ptrtoint ptr %60 to i64
  %63 = sub i64 %61, %62
  %64 = lshr exact i64 %63, 5
  %65 = trunc i64 %64 to i32
  %66 = load ptr, ptr %49, align 8
  %67 = tail call noundef ptr @_ZN4llvm8CallBase7arg_endEv(ptr noundef nonnull align 8 dereferenceable(88) %66)
  %68 = getelementptr inbounds nuw i8, ptr %66, i64 4
  %69 = load i32, ptr %68, align 4
  %70 = and i32 %69, 134217727
  %71 = zext nneg i32 %70 to i64
  %72 = sub nsw i64 0, %71
  %73 = getelementptr inbounds %"class.llvm::Use", ptr %66, i64 %72
  %74 = ptrtoint ptr %67 to i64
  %75 = ptrtoint ptr %73 to i64
  %76 = sub i64 %74, %75
  %77 = lshr exact i64 %76, 5
  %78 = trunc i64 %77 to i32
  %79 = icmp eq i32 %65, %78
  br i1 %79, label %80, label %_ZNK12_GLOBAL__N_115MemoryLocOrCalleqERKS0_.exit

80:                                               ; preds = %53
  %81 = load ptr, ptr %9, align 8
  %82 = getelementptr inbounds nuw i8, ptr %81, i64 4
  %83 = load i32, ptr %82, align 4
  %84 = and i32 %83, 134217727
  %85 = zext nneg i32 %84 to i64
  %86 = sub nsw i64 0, %85
  %87 = getelementptr inbounds %"class.llvm::Use", ptr %81, i64 %86
  %88 = tail call noundef ptr @_ZN4llvm8CallBase7arg_endEv(ptr noundef nonnull align 8 dereferenceable(88) %81)
  %.not9.i.i.i.i.i = icmp eq ptr %87, %88
  br i1 %.not9.i.i.i.i.i, label %_ZNK12_GLOBAL__N_115MemoryLocOrCalleqERKS0_.exit, label %.lr.ph.i.i.i.i.preheader.i

.lr.ph.i.i.i.i.preheader.i:                       ; preds = %80
  %89 = load ptr, ptr %49, align 8
  %90 = getelementptr inbounds nuw i8, ptr %89, i64 4
  %91 = load i32, ptr %90, align 4
  %92 = and i32 %91, 134217727
  %93 = zext nneg i32 %92 to i64
  %94 = sub nsw i64 0, %93
  %95 = getelementptr inbounds %"class.llvm::Use", ptr %89, i64 %94
  br label %.lr.ph.i.i.i.i.i

.lr.ph.i.i.i.i.i:                                 ; preds = %.lr.ph.i.i.i.i.i, %.lr.ph.i.i.i.i.preheader.i
  %.011.i.i.i.i.i = phi ptr [ %95, %.lr.ph.i.i.i.i.preheader.i ], [ %100, %.lr.ph.i.i.i.i.i ]
  %.0810.i.i.i.i.i = phi ptr [ %87, %.lr.ph.i.i.i.i.preheader.i ], [ %99, %.lr.ph.i.i.i.i.i ]
  %96 = load ptr, ptr %.0810.i.i.i.i.i, align 8
  %97 = load ptr, ptr %.011.i.i.i.i.i, align 8
  %98 = icmp eq ptr %96, %97
  %99 = getelementptr inbounds i8, ptr %.0810.i.i.i.i.i, i64 32
  %100 = getelementptr inbounds i8, ptr %.011.i.i.i.i.i, i64 32
  %.not.i.i.i.i.i = icmp ne ptr %99, %88
  %or.cond.not = select i1 %98, i1 %.not.i.i.i.i.i, i1 false
  br i1 %or.cond.not, label %.lr.ph.i.i.i.i.i, label %_ZNK12_GLOBAL__N_115MemoryLocOrCalleqERKS0_.exit, !llvm.loop !248

_ZNK12_GLOBAL__N_115MemoryLocOrCalleqERKS0_.exit: ; preds = %.lr.ph.i.i.i.i.i, %2, %10, %15, %21, %27, %33, %39, %45, %53, %80
  %.0.i = phi i1 [ false, %2 ], [ false, %45 ], [ false, %53 ], [ false, %15 ], [ false, %10 ], [ false, %33 ], [ false, %27 ], [ false, %21 ], [ %44, %39 ], [ true, %80 ], [ %98, %.lr.ph.i.i.i.i.i ]
  ret i1 %.0.i
}